; Function Attrs: nounwind sspstrong uwtable
define internal void @prop_pmu_num_set(ptr noundef %obj, ptr noundef %v, ptr noundef %name, ptr readnone captures(none) %opaque, ptr noundef %errp) #3 {
entry:
  %pmu_num = alloca i8, align 1
  %call.i = tail call ptr @object_dynamic_cast_assert(ptr noundef %obj, ptr noundef nonnull @.str.250, ptr noundef nonnull @.str.282, i32 noundef 46, ptr noundef nonnull @__func__.RISCV_CPU) #14
  %call1 = call zeroext i1 @visit_type_uint8(ptr noundef %v, ptr noundef %name, ptr noundef nonnull %pmu_num, ptr noundef %errp) #14
  %0 = load i8, ptr %pmu_num, align 1
  %cmp = icmp ugt i8 %0, 29
  br i1 %cmp, label %if.then, label %if.end

if.then:                                          ; preds = %entry
  call void (ptr, ptr, i32, ptr, ptr, ...) @error_setg_internal(ptr noundef %errp, ptr noundef nonnull @.str.218, i32 noundef 1438, ptr noundef nonnull @__func__.prop_pmu_num_set, ptr noundef nonnull @.str.311) #14
  br label %return

if.end:                                           ; preds = %entry
  %cmp4 = icmp eq i8 %0, 0
  %narrow = sub nuw nsw i8 64, %0
  %sh_prom = zext nneg i8 %narrow to i64
  %shr = lshr i64 -1, %sh_prom
  %shr.tr = trunc i64 %shr to i32
  %conv8 = shl nuw i32 %shr.tr, 3
  %conv8.sink = select i1 %cmp4, i32 0, i32 %conv8
  %1 = getelementptr inbounds nuw i8, ptr %call.i, i64 15428
  store i32 %conv8.sink, ptr %1, align 4
  call void (ptr, ...) @warn_report(ptr noundef nonnull @.str.312) #14
  br label %return

return:                                           ; preds = %if.end, %if.then
  ret void
}